(lp0
ccopy_reg
_reconstructor
p1
(c__main__
Contact
p2
c__builtin__
object
p3
Ntp4
Rp5
(dp6
S'phone'
p7
S'123-432-1234'
p8
sS'first_name'
p9
S'Melissa'
p10
sS'last_name'
p11
S'Mary'
p12
sS'email'
p13
S'mmary@xyz.com'
p14
sbag1
(g2
g3
Ntp15
Rp16
(dp17
g7
S'321-432-3214'
p18
sg9
S'jazz'
p19
sg11
S'harper'
p20
sg13
S'jharper@zxc.com'
p21
sba.